; Function Attrs: mustprogress nounwind uwtable
define hidden void @_ZN19JfrCheckpointWriter4copyEPK20JfrCheckpointContext(ptr dead_on_unwind noalias writable sret(%class.RefCountHandle) align 8 %0, ptr nocapture noundef nonnull align 8 dereferenceable(73) %1, ptr noundef readonly %2) local_unnamed_addr #0 align 2 {
  %4 = getelementptr inbounds i8, ptr %1, i64 16
  %5 = load ptr, ptr %4, align 8
  %.not10.i = icmp eq ptr %5, null
  br i1 %.not10.i, label %_ZN19JfrCheckpointWriter12session_dataEPmbPK20JfrCheckpointContext.exit, label %6

6:                                                ; preds = %3
  %.not.i = icmp eq ptr %2, null
  br i1 %.not.i, label %16, label %7

7:                                                ; preds = %6
  %8 = load ptr, ptr %1, align 8
  %9 = load i64, ptr %2, align 8
  %10 = getelementptr inbounds i8, ptr %8, i64 %9
  %11 = getelementptr inbounds i8, ptr %1, i64 8
  %12 = load ptr, ptr %11, align 8
  %13 = ptrtoint ptr %12 to i64
  %14 = ptrtoint ptr %10 to i64
  %15 = sub i64 %13, %14
  br label %_ZN19JfrCheckpointWriter12session_dataEPmbPK20JfrCheckpointContext.exit

16:                                               ; preds = %6
  %17 = getelementptr inbounds i8, ptr %1, i64 8
  %18 = load ptr, ptr %17, align 8
  %19 = load ptr, ptr %1, align 8
  %20 = ptrtoint ptr %18 to i64
  %21 = ptrtoint ptr %19 to i64
  %22 = sub i64 %20, %21
  %23 = getelementptr inbounds i8, ptr %1, i64 72
  %24 = load i8, ptr %23, align 8
  %25 = trunc i8 %24 to i1
  br i1 %25, label %26, label %_ZN19JfrCheckpointWriter12session_dataEPmbPK20JfrCheckpointContext.exit

26:                                               ; preds = %16
  %27 = getelementptr inbounds i8, ptr %1, i64 48
  %28 = load i64, ptr %27, align 8
  %29 = getelementptr inbounds i8, ptr %1, i64 68
  %30 = load i32, ptr %29, align 4
  %31 = getelementptr inbounds i8, ptr %1, i64 64
  %32 = load i32, ptr %31, align 8
  tail call fastcc void @_ZL23write_checkpoint_headerPhlljj(ptr noundef %19, i64 noundef %22, i64 noundef %28, i32 noundef %30, i32 noundef %32)
  store i8 0, ptr %23, align 8
  %.pre.i.pre = load ptr, ptr %1, align 8
  br label %_ZN19JfrCheckpointWriter12session_dataEPmbPK20JfrCheckpointContext.exit

_ZN19JfrCheckpointWriter12session_dataEPmbPK20JfrCheckpointContext.exit: ; preds = %16, %26, %3, %7
  %.0 = phi i64 [ %15, %7 ], [ 0, %3 ], [ %22, %26 ], [ %22, %16 ]
  %.0.i = phi ptr [ %10, %7 ], [ null, %3 ], [ %.pre.i.pre, %26 ], [ %19, %16 ]
  tail call void @_ZN7JfrBlob4makeEPKhm(ptr dead_on_unwind writable sret(%class.RefCountHandle) align 8 %0, ptr noundef %.0.i, i64 noundef %.0) #9
  ret void
}